target datalayout = "e-m:e-p270:32:32-p271:32:32-p272:64:64-i64:64-i128:128-f80:128-n8:16:32:64-S128"
target triple = "x86_64-pc-linux-gnu"

; Function Attrs: mustprogress nounwind uwtable
define internal noundef zeroext i1 @_ZL22isMethodOrFunctionCharPKcl(ptr noundef %0, i64 noundef %1) #4 {
  %3 = alloca ptr, align 8
  %4 = alloca i64, align 8
  %5 = alloca i8, align 1
  store ptr %0, ptr %3, align 8
  store i64 %1, ptr %4, align 8
  %6 = load ptr, ptr %3, align 8
  %7 = load i8, ptr %6, align 1
  store i8 %7, ptr %5, align 1
  %8 = load i64, ptr %4, align 8
  %9 = icmp eq i64 %8, 1
  br i1 %9, label %10, label %29

10:                                               ; preds = %2
  %11 = load i8, ptr %5, align 1
  %12 = sext i8 %11 to i32
  %13 = call i32 @isalnum(i32 noundef %12) #13
  %14 = icmp ne i32 %13, 0
  br i1 %14, label %27, label %15

15:                                               ; preds = %10
  %16 = load i8, ptr %5, align 1
  %17 = sext i8 %16 to i32
  %18 = icmp eq i32 %17, 46
  br i1 %18, label %27, label %19

19:                                               ; preds = %15
  %20 = load i8, ptr %5, align 1
  %21 = sext i8 %20 to i32
  %22 = icmp eq i32 %21, 58
  br i1 %22, label %27, label %23

23:                                               ; preds = %19
  %24 = load i8, ptr %5, align 1
  %25 = sext i8 %24 to i32
  %26 = icmp eq i32 %25, 95
  br label %27

27:                                               ; preds = %23, %19, %15, %10
  %28 = phi i1 [ true, %19 ], [ true, %15 ], [ true, %10 ], [ %26, %23 ]
  br label %29

29:                                               ; preds = %27, %2
  %30 = phi i1 [ false, %2 ], [ %28, %27 ]
  ret i1 %30
}