; Function Attrs: mustprogress nofree nounwind willreturn memory(read) uwtable
define internal noundef zeroext i1 @_ZL22isMethodOrFunctionCharPKcl(ptr nocapture noundef readonly %0, i64 noundef %1) #13 {
  %3 = icmp eq i64 %1, 1
  br i1 %3, label %4, label %switch.edge

4:                                                ; preds = %2
  %5 = load i8, ptr %0, align 1
  %6 = sext i8 %5 to i32
  %7 = tail call i32 @isalnum(i32 noundef %6) #25
  %.fr = freeze i32 %7
  %.not = icmp eq i32 %.fr, 0
  br i1 %.not, label %switch.early.test, label %switch.edge

switch.early.test:                                ; preds = %4
  %switch.tableidx = add i8 %5, -46
  %8 = icmp ult i8 %switch.tableidx, 50
  br i1 %8, label %switch.lookup, label %switch.edge

switch.lookup:                                    ; preds = %switch.early.test
  %switch.cast = zext nneg i8 %switch.tableidx to i50
  %switch.downshift = lshr i50 -562949953417215, %switch.cast
  %switch.masked = trunc i50 %switch.downshift to i1
  br label %switch.edge

switch.edge:                                      ; preds = %switch.early.test, %switch.lookup, %4, %2
  %9 = phi i1 [ false, %2 ], [ true, %4 ], [ %switch.masked, %switch.lookup ], [ false, %switch.early.test ]
  ret i1 %9
}